; Function Attrs: nofree norecurse nosync nounwind memory(readwrite, inaccessiblemem: none) uwtable
define internal void @png_read_filter_row_paeth_multibyte_pixel(ptr nocapture noundef readonly %0, ptr noundef %1, ptr nocapture noundef readonly %2) #6 {
  %4 = getelementptr inbounds i8, ptr %0, i64 19
  %5 = load i8, ptr %4, align 1
  %6 = zext i8 %5 to i64
  %7 = add nuw nsw i64 %6, 7
  %8 = lshr i64 %7, 3
  %9 = getelementptr inbounds i8, ptr %1, i64 %8
  %.not = icmp eq i8 %5, 0
  br i1 %.not, label %._crit_edge, label %.lr.ph

.lr.ph:                                           ; preds = %3, %.lr.ph
  %.056 = phi ptr [ %14, %.lr.ph ], [ %1, %3 ]
  %.04555 = phi ptr [ %11, %.lr.ph ], [ %2, %3 ]
  %10 = load i8, ptr %.056, align 1
  %11 = getelementptr inbounds i8, ptr %.04555, i64 1
  %12 = load i8, ptr %.04555, align 1
  %13 = add i8 %12, %10
  %14 = getelementptr inbounds i8, ptr %.056, i64 1
  store i8 %13, ptr %.056, align 1
  %15 = icmp ult ptr %14, %9
  br i1 %15, label %.lr.ph, label %._crit_edge, !llvm.loop !90

._crit_edge:                                      ; preds = %.lr.ph, %3
  %.045.lcssa = phi ptr [ %2, %3 ], [ %11, %.lr.ph ]
  %.0.lcssa = phi ptr [ %1, %3 ], [ %14, %.lr.ph ]
  %16 = getelementptr inbounds i8, ptr %0, i64 8
  %17 = load i64, ptr %16, align 8
  %18 = getelementptr inbounds i8, ptr %1, i64 %17
  %19 = icmp ult ptr %.0.lcssa, %18
  br i1 %19, label %.lr.ph61, label %._crit_edge62

.lr.ph61:                                         ; preds = %._crit_edge
  %20 = sub nsw i64 0, %8
  br label %21

21:                                               ; preds = %.lr.ph61, %21
  %.159 = phi ptr [ %.0.lcssa, %.lr.ph61 ], [ %41, %21 ]
  %.14658 = phi ptr [ %.045.lcssa, %.lr.ph61 ], [ %28, %21 ]
  %22 = getelementptr inbounds i8, ptr %.14658, i64 %20
  %23 = load i8, ptr %22, align 1
  %24 = zext i8 %23 to i32
  %25 = getelementptr inbounds i8, ptr %.159, i64 %20
  %26 = load i8, ptr %25, align 1
  %27 = zext i8 %26 to i32
  %28 = getelementptr inbounds i8, ptr %.14658, i64 1
  %29 = load i8, ptr %.14658, align 1
  %30 = zext i8 %29 to i32
  %31 = sub nsw i32 %30, %24
  %32 = sub nsw i32 %27, %24
  %33 = tail call i32 @llvm.abs.i32(i32 %31, i1 true)
  %34 = tail call i32 @llvm.abs.i32(i32 %32, i1 true)
  %35 = add nsw i32 %31, %32
  %36 = tail call i32 @llvm.abs.i32(i32 %35, i1 true)
  %37 = icmp ult i32 %34, %33
  %.048 = select i1 %37, i8 %29, i8 %26
  %.047 = tail call i32 @llvm.umin.i32(i32 %34, i32 %33)
  %38 = icmp ult i32 %36, %.047
  %.149 = select i1 %38, i8 %23, i8 %.048
  %39 = load i8, ptr %.159, align 1
  %40 = add i8 %.149, %39
  %41 = getelementptr inbounds i8, ptr %.159, i64 1
  store i8 %40, ptr %.159, align 1
  %42 = icmp ult ptr %41, %18
  br i1 %42, label %21, label %._crit_edge62, !llvm.loop !91

._crit_edge62:                                    ; preds = %21, %._crit_edge
  ret void
}